target datalayout = "e-m:e-p270:32:32-p271:32:32-p272:64:64-i64:64-i128:128-f80:128-n8:16:32:64-S128"
target triple = "x86_64-pc-linux-gnu"

%struct.nameData = type { [64 x i8] }
%struct.FormData_pg_class = type { i32, %struct.nameData, i32, i32, i32, i32, i32, i32, i32, i32, float, i32, i32, i8, i8, i8, i8, i16, i16, i8, i8, i8, i8, i8, i8, i8, i8, i32, i32, i32 }
%struct.HeapTupleData = type { i32, %struct.ItemPointerData, i32, ptr }
%struct.ItemPointerData = type { %struct.BlockIdData, i16 }
%struct.BlockIdData = type { i16, i16 }
%struct.HeapTupleHeaderData = type { %union.anon, %struct.ItemPointerData, i16, i16, i8, [0 x i8] }
%union.anon = type { %struct.HeapTupleFields }
%struct.HeapTupleFields = type { i32, i32, %union.anon.0 }
%union.anon.0 = type { i32 }

@.str.2 = private unnamed_addr constant [12 x i8] c"tablecmds.c\00", align 1
@.str.23 = private unnamed_addr constant [36 x i8] c"cache lookup failed for relation %u\00", align 1
@__func__.SetRelationHasSubclass = private unnamed_addr constant [23 x i8] c"SetRelationHasSubclass\00", align 1

; Function Attrs: inlinehint nounwind uwtable
define internal ptr @GETSTRUCT(ptr noundef %0) #6 {
  %2 = alloca ptr, align 8
  store ptr %0, ptr %2, align 8
  %3 = load ptr, ptr %2, align 8
  %4 = getelementptr inbounds nuw %struct.HeapTupleData, ptr %3, i32 0, i32 3
  %5 = load ptr, ptr %4, align 8
  %6 = load ptr, ptr %2, align 8
  %7 = getelementptr inbounds nuw %struct.HeapTupleData, ptr %6, i32 0, i32 3
  %8 = load ptr, ptr %7, align 8
  %9 = getelementptr inbounds nuw %struct.HeapTupleHeaderData, ptr %8, i32 0, i32 4
  %10 = load i8, ptr %9, align 2
  %11 = zext i8 %10 to i32
  %12 = sext i32 %11 to i64
  %13 = getelementptr inbounds i8, ptr %5, i64 %12
  ret ptr %13
}

; Function Attrs: inlinehint nounwind uwtable
define internal i64 @ObjectIdGetDatum(i32 noundef %0) #6 {
  %2 = alloca i32, align 4
  store i32 %0, ptr %2, align 4
  %3 = load i32, ptr %2, align 4
  %4 = zext i32 %3 to i64
  ret i64 %4
}

; Function Attrs: nounwind uwtable
define dso_local void @SetRelationHasSubclass(i32 noundef %0, i1 noundef zeroext %1) #0 {
  %3 = alloca i32, align 4
  %4 = alloca i8, align 1
  %5 = alloca ptr, align 8
  %6 = alloca ptr, align 8
  %7 = alloca ptr, align 8
  store i32 %0, ptr %3, align 4
  %8 = zext i1 %1 to i8
  store i8 %8, ptr %4, align 1
  call void @llvm.lifetime.start.p0(i64 8, ptr %5) #12
  call void @llvm.lifetime.start.p0(i64 8, ptr %6) #12
  call void @llvm.lifetime.start.p0(i64 8, ptr %7) #12
  %9 = call ptr @table_open(i32 noundef 1259, i32 noundef 3)
  store ptr %9, ptr %5, align 8
  %10 = load i32, ptr %3, align 4
  %11 = call i64 @ObjectIdGetDatum(i32 noundef %10)
  %12 = call ptr @SearchSysCacheCopy(i32 noundef 57, i64 noundef %11, i64 noundef 0, i64 noundef 0, i64 noundef 0)
  store ptr %12, ptr %6, align 8
  %13 = load ptr, ptr %6, align 8
  %14 = icmp ne ptr %13, null
  br i1 %14, label %27, label %15

15:                                               ; preds = %2
  br label %16

16:                                               ; preds = %15
  br i1 true, label %17, label %19

17:                                               ; preds = %16
  %18 = call zeroext i1 @errstart_cold(i32 noundef 21, ptr noundef null) #13
  br i1 %18, label %21, label %24

19:                                               ; preds = %16
  %20 = call zeroext i1 @errstart(i32 noundef 21, ptr noundef null)
  br i1 %20, label %21, label %24

21:                                               ; preds = %19, %17
  %22 = load i32, ptr %3, align 4
  %23 = call i32 (ptr, ...) @errmsg_internal(ptr noundef @.str.23, i32 noundef %22)
  call void @errfinish(ptr noundef @.str.2, i32 noundef 3627, ptr noundef @__func__.SetRelationHasSubclass)
  br label %24

24:                                               ; preds = %21, %19, %17
  unreachable

25:                                               ; No predecessors!
  br label %26

26:                                               ; preds = %25
  br label %27

27:                                               ; preds = %26, %2
  %28 = load ptr, ptr %6, align 8
  %29 = call ptr @GETSTRUCT(ptr noundef %28)
  store ptr %29, ptr %7, align 8
  %30 = load ptr, ptr %7, align 8
  %31 = getelementptr inbounds nuw %struct.FormData_pg_class, ptr %30, i32 0, i32 21
  %32 = load i8, ptr %31, align 2, !range !6, !noundef !7
  %33 = trunc i8 %32 to i1
  %34 = zext i1 %33 to i32
  %35 = load i8, ptr %4, align 1, !range !6, !noundef !7
  %36 = trunc i8 %35 to i1
  %37 = zext i1 %36 to i32
  %38 = icmp ne i32 %34, %37
  br i1 %38, label %39, label %49

39:                                               ; preds = %27
  %40 = load i8, ptr %4, align 1, !range !6, !noundef !7
  %41 = trunc i8 %40 to i1
  %42 = load ptr, ptr %7, align 8
  %43 = getelementptr inbounds nuw %struct.FormData_pg_class, ptr %42, i32 0, i32 21
  %44 = zext i1 %41 to i8
  store i8 %44, ptr %43, align 2
  %45 = load ptr, ptr %5, align 8
  %46 = load ptr, ptr %6, align 8
  %47 = getelementptr inbounds nuw %struct.HeapTupleData, ptr %46, i32 0, i32 1
  %48 = load ptr, ptr %6, align 8
  call void @CatalogTupleUpdate(ptr noundef %45, ptr noundef %47, ptr noundef %48)
  br label %51

49:                                               ; preds = %27
  %50 = load ptr, ptr %6, align 8
  call void @CacheInvalidateRelcacheByTuple(ptr noundef %50)
  br label %51

51:                                               ; preds = %49, %39
  %52 = load ptr, ptr %6, align 8
  call void @heap_freetuple(ptr noundef %52)
  %53 = load ptr, ptr %5, align 8
  call void @table_close(ptr noundef %53, i32 noundef 3)
  call void @llvm.lifetime.end.p0(i64 8, ptr %7) #12
  call void @llvm.lifetime.end.p0(i64 8, ptr %6) #12
  call void @llvm.lifetime.end.p0(i64 8, ptr %5) #12
  ret void
}