; Function Attrs: nounwind uwtable
define dso_local void @SetRelationHasSubclass(i32 noundef %0, i1 noundef zeroext %1) local_unnamed_addr #0 {
  %3 = zext i1 %1 to i8
  %4 = tail call ptr @table_open(i32 noundef 1259, i32 noundef 3) #15
  %5 = zext i32 %0 to i64
  %6 = tail call ptr @SearchSysCacheCopy(i32 noundef 57, i64 noundef %5, i64 noundef 0, i64 noundef 0, i64 noundef 0) #15
  %.not = icmp eq ptr %6, null
  br i1 %.not, label %7, label %10

7:                                                ; preds = %2
  %8 = tail call zeroext i1 @errstart_cold(i32 noundef 21, ptr noundef null) #16
  tail call void @llvm.assume(i1 %8)
  %9 = tail call i32 (ptr, ...) @errmsg_internal(ptr noundef nonnull @.str.23, i32 noundef %0) #15
  tail call void @errfinish(ptr noundef nonnull @.str.2, i32 noundef 3627, ptr noundef nonnull @__func__.SetRelationHasSubclass) #15
  unreachable

10:                                               ; preds = %2
  %11 = getelementptr i8, ptr %6, i64 16
  %.val = load ptr, ptr %11, align 8
  %12 = getelementptr inbounds nuw i8, ptr %.val, i64 22
  %13 = load i8, ptr %12, align 2
  %14 = zext i8 %13 to i64
  %15 = getelementptr inbounds nuw i8, ptr %.val, i64 %14
  %16 = getelementptr inbounds nuw i8, ptr %15, i64 122
  %17 = load i8, ptr %16, align 2, !range !6, !noundef !7
  %.not13 = icmp eq i8 %17, %3
  br i1 %.not13, label %20, label %18

18:                                               ; preds = %10
  store i8 %3, ptr %16, align 2
  %19 = getelementptr inbounds nuw i8, ptr %6, i64 4
  tail call void @CatalogTupleUpdate(ptr noundef %4, ptr noundef nonnull %19, ptr noundef nonnull %6) #15
  br label %21

20:                                               ; preds = %10
  tail call void @CacheInvalidateRelcacheByTuple(ptr noundef nonnull %6) #15
  br label %21

21:                                               ; preds = %20, %18
  tail call void @heap_freetuple(ptr noundef nonnull %6) #15
  tail call void @table_close(ptr noundef %4, i32 noundef 3) #15
  ret void
}